target datalayout = "e-m:e-p270:32:32-p271:32:32-p272:64:64-i64:64-i128:128-f80:128-n8:16:32:64-S128"
target triple = "x86_64-pc-linux-gnu"

%struct.ipv6_mreq = type { %struct.in6_addr, i32 }
%struct.in6_addr = type { %union.anon.16 }
%union.anon.16 = type { [4 x i32] }
%struct.RBasic = type { i64, i64 }
%struct.RString = type { %struct.RBasic, i64, %union.anon.12 }
%union.anon.12 = type { %struct.anon.13 }
%struct.anon.13 = type { ptr, %union.anon.14 }
%union.anon.14 = type { i64 }
%struct.anon.15 = type { [1 x i8] }

@.str.19 = private unnamed_addr constant [4 x i8] c" %s\00", align 1
@.str.25 = private unnamed_addr constant [2 x i8] c" \00", align 1
@.str.36 = private unnamed_addr constant [17 x i8] c" invalid-address\00", align 1
@.str.38 = private unnamed_addr constant [5 x i8] c"%s%s\00", align 1
@.str.39 = private unnamed_addr constant [5 x i8] c"%s%u\00", align 1
@.str.41 = private unnamed_addr constant [12 x i8] c" interface:\00", align 1

; Function Attrs: inlinehint nounwind sspstrong willreturn memory(read) uwtable
define internal i64 @RB_FL_TEST_RAW(i64 noundef %0, i64 noundef %1) #5 {
  %3 = alloca i64, align 8
  %4 = alloca i64, align 8
  store i64 %0, ptr %3, align 8, !tbaa !10
  store i64 %1, ptr %4, align 8, !tbaa !10
  %5 = load i64, ptr %3, align 8, !tbaa !10
  %6 = inttoptr i64 %5 to ptr
  %7 = getelementptr inbounds nuw %struct.RBasic, ptr %6, i32 0, i32 0
  %8 = load i64, ptr %7, align 8, !tbaa !65
  %9 = load i64, ptr %4, align 8, !tbaa !10
  %10 = and i64 %8, %9
  ret i64 %10
}

; Function Attrs: inlinehint nounwind sspstrong willreturn memory(read) uwtable
define internal zeroext i1 @RB_FL_ANY_RAW(i64 noundef %0, i64 noundef %1) #5 {
  %3 = alloca i64, align 8
  %4 = alloca i64, align 8
  store i64 %0, ptr %3, align 8, !tbaa !10
  store i64 %1, ptr %4, align 8, !tbaa !10
  %5 = load i64, ptr %3, align 8, !tbaa !10
  %6 = load i64, ptr %4, align 8, !tbaa !10
  %7 = call i64 @RB_FL_TEST_RAW(i64 noundef %5, i64 noundef %6) #20
  %8 = icmp ne i64 %7, 0
  ret i1 %8
}

; Function Attrs: inlinehint nounwind sspstrong uwtable
define internal i64 @rbimpl_strlen(ptr noundef nonnull %0) #3 {
  %2 = alloca ptr, align 8
  store ptr %0, ptr %2, align 8, !tbaa !19
  %3 = load ptr, ptr %2, align 8, !tbaa !19
  %4 = call i64 @strlen(ptr noundef %3) #20
  ret i64 %4
}

; Function Attrs: alwaysinline nounwind
define internal ptr @memcpy.inline(ptr noalias nonnull %0, ptr noalias nonnull %1, i64 %2) #8 {
  %4 = alloca ptr, align 8
  %5 = alloca ptr, align 8
  %6 = alloca i64, align 8
  store ptr %0, ptr %4, align 8, !tbaa !64
  store ptr %1, ptr %5, align 8, !tbaa !64
  store i64 %2, ptr %6, align 8, !tbaa !10
  %7 = load ptr, ptr %4, align 8, !tbaa !64
  %8 = load ptr, ptr %5, align 8, !tbaa !64
  %9 = load i64, ptr %6, align 8, !tbaa !10
  %10 = load ptr, ptr %4, align 8, !tbaa !64
  %11 = call i64 @llvm.objectsize.i64.p0(ptr %10, i1 false, i1 true, i1 false)
  %12 = call ptr @__memcpy_chk(ptr noundef %7, ptr noundef %8, i64 noundef %9, i64 noundef %11) #17
  ret ptr %12
}

; Function Attrs: inlinehint nounwind sspstrong willreturn memory(read, argmem: readwrite) uwtable
define internal void @rbimpl_rstring_getmem(ptr dead_on_unwind noalias writable sret(%struct.RString) align 8 %0, i64 noundef %1) #11 {
  %3 = alloca i64, align 8
  store i64 %1, ptr %3, align 8, !tbaa !10
  %4 = load i64, ptr %3, align 8, !tbaa !10
  %5 = call zeroext i1 @RB_FL_ANY_RAW(i64 noundef %4, i64 noundef 8192) #20
  br i1 %5, label %6, label %9

6:                                                ; preds = %2
  %7 = load i64, ptr %3, align 8, !tbaa !10
  %8 = inttoptr i64 %7 to ptr
  call void @llvm.memcpy.p0.p0.i64(ptr align 8 %0, ptr align 8 %8, i64 40, i1 false), !tbaa.struct !69
  br label %20

9:                                                ; preds = %2
  %10 = load i64, ptr %3, align 8, !tbaa !10
  %11 = call i64 @RSTRING_LEN(i64 noundef %10) #20
  %12 = getelementptr inbounds nuw %struct.RString, ptr %0, i32 0, i32 1
  store i64 %11, ptr %12, align 8, !tbaa !67
  %13 = load i64, ptr %3, align 8, !tbaa !10
  %14 = inttoptr i64 %13 to ptr
  %15 = getelementptr inbounds nuw %struct.RString, ptr %14, i32 0, i32 2
  %16 = getelementptr inbounds nuw %struct.anon.15, ptr %15, i32 0, i32 0
  %17 = getelementptr inbounds [1 x i8], ptr %16, i64 0, i64 0
  %18 = getelementptr inbounds nuw %struct.RString, ptr %0, i32 0, i32 2
  %19 = getelementptr inbounds nuw %struct.anon.13, ptr %18, i32 0, i32 0
  store ptr %17, ptr %19, align 8, !tbaa !12
  br label %20

20:                                               ; preds = %9, %6
  ret void
}

; Function Attrs: nounwind sspstrong uwtable
define internal i32 @rb_if_indextoname(ptr noundef %0, ptr noundef %1, i32 noundef %2, ptr noundef %3, i64 noundef %4) #0 {
  %6 = alloca i32, align 4
  %7 = alloca ptr, align 8
  %8 = alloca ptr, align 8
  %9 = alloca i32, align 4
  %10 = alloca ptr, align 8
  %11 = alloca i64, align 8
  %12 = alloca [16 x i8], align 16
  %13 = alloca i32, align 4
  store ptr %0, ptr %7, align 8, !tbaa !19
  store ptr %1, ptr %8, align 8, !tbaa !19
  store i32 %2, ptr %9, align 4, !tbaa !6
  store ptr %3, ptr %10, align 8, !tbaa !19
  store i64 %4, ptr %11, align 8, !tbaa !10
  call void @llvm.lifetime.start.p0(i64 16, ptr %12) #17
  %14 = load i32, ptr %9, align 4, !tbaa !6
  %15 = getelementptr inbounds [16 x i8], ptr %12, i64 0, i64 0
  %16 = call ptr @if_indextoname(i32 noundef %14, ptr noundef %15) #17
  %17 = icmp ne ptr %16, null
  br i1 %17, label %18, label %24

18:                                               ; preds = %5
  %19 = load ptr, ptr %10, align 8, !tbaa !19
  %20 = load i64, ptr %11, align 8, !tbaa !10
  %21 = load ptr, ptr %7, align 8, !tbaa !19
  %22 = getelementptr inbounds [16 x i8], ptr %12, i64 0, i64 0
  %23 = call i32 (ptr, i64, ptr, ...) @ruby_snprintf(ptr noundef %19, i64 noundef %20, ptr noundef @.str.38, ptr noundef %21, ptr noundef %22)
  store i32 %23, ptr %6, align 4
  store i32 1, ptr %13, align 4
  br label %30

24:                                               ; preds = %5
  %25 = load ptr, ptr %10, align 8, !tbaa !19
  %26 = load i64, ptr %11, align 8, !tbaa !10
  %27 = load ptr, ptr %8, align 8, !tbaa !19
  %28 = load i32, ptr %9, align 4, !tbaa !6
  %29 = call i32 (ptr, i64, ptr, ...) @ruby_snprintf(ptr noundef %25, i64 noundef %26, ptr noundef @.str.39, ptr noundef %27, i32 noundef %28)
  store i32 %29, ptr %6, align 4
  store i32 1, ptr %13, align 4
  br label %30

30:                                               ; preds = %24, %18
  call void @llvm.lifetime.end.p0(i64 16, ptr %12) #17
  %31 = load i32, ptr %6, align 4
  ret i32 %31
}

; Function Attrs: inlinehint nounwind sspstrong uwtable
define internal i64 @rbimpl_str_cat_cstr(i64 noundef %0, ptr noundef nonnull %1) #3 {
  %3 = alloca i64, align 8
  %4 = alloca ptr, align 8
  %5 = alloca i64, align 8
  store i64 %0, ptr %3, align 8, !tbaa !10
  store ptr %1, ptr %4, align 8, !tbaa !19
  call void @llvm.lifetime.start.p0(i64 8, ptr %5) #17
  %6 = load ptr, ptr %4, align 8, !tbaa !19
  %7 = call i64 @rbimpl_strlen(ptr noundef %6)
  store i64 %7, ptr %5, align 8, !tbaa !10
  %8 = load i64, ptr %3, align 8, !tbaa !10
  %9 = load ptr, ptr %4, align 8, !tbaa !19
  %10 = load i64, ptr %5, align 8, !tbaa !10
  %11 = call i64 @rb_str_cat(i64 noundef %8, ptr noundef %9, i64 noundef %10)
  call void @llvm.lifetime.end.p0(i64 8, ptr %5) #17
  ret i64 %11
}

; Function Attrs: inlinehint nounwind sspstrong memory(argmem: readwrite, inaccessiblemem: readwrite) uwtable
define internal nonnull ptr @ruby_nonempty_memcpy(ptr noundef nonnull %0, ptr noundef %1, i64 noundef %2) #4 {
  %4 = alloca ptr, align 8
  %5 = alloca ptr, align 8
  %6 = alloca ptr, align 8
  %7 = alloca i64, align 8
  store ptr %0, ptr %5, align 8, !tbaa !64
  store ptr %1, ptr %6, align 8, !tbaa !64
  store i64 %2, ptr %7, align 8, !tbaa !10
  %8 = load i64, ptr %7, align 8, !tbaa !10
  %9 = icmp ne i64 %8, 0
  br i1 %9, label %10, label %15

10:                                               ; preds = %3
  %11 = load ptr, ptr %5, align 8, !tbaa !64
  %12 = load ptr, ptr %6, align 8, !tbaa !64
  %13 = load i64, ptr %7, align 8, !tbaa !10
  %14 = call ptr @memcpy.inline(ptr noundef %11, ptr noundef %12, i64 noundef %13) #17
  store ptr %14, ptr %4, align 8
  br label %17

15:                                               ; preds = %3
  %16 = load ptr, ptr %5, align 8, !tbaa !64
  store ptr %16, ptr %4, align 8
  br label %17

17:                                               ; preds = %15, %10
  %18 = load ptr, ptr %4, align 8
  ret ptr %18
}

; Function Attrs: inlinehint nounwind sspstrong uwtable
define internal ptr @RSTRING_PTR(i64 noundef %0) #3 {
  %2 = alloca i64, align 8
  %3 = alloca ptr, align 8
  %4 = alloca %struct.RString, align 8
  store i64 %0, ptr %2, align 8, !tbaa !10
  call void @llvm.lifetime.start.p0(i64 8, ptr %3) #17
  %5 = load i64, ptr %2, align 8, !tbaa !10
  call void @rbimpl_rstring_getmem(ptr dead_on_unwind writable sret(%struct.RString) align 8 %4, i64 noundef %5) #22
  %6 = getelementptr inbounds nuw %struct.RString, ptr %4, i32 0, i32 2
  %7 = getelementptr inbounds nuw %struct.anon.13, ptr %6, i32 0, i32 0
  %8 = load ptr, ptr %7, align 8, !tbaa !12
  store ptr %8, ptr %3, align 8, !tbaa !19
  %9 = load ptr, ptr %3, align 8, !tbaa !19
  call void @llvm.lifetime.end.p0(i64 8, ptr %3) #17
  ret ptr %9
}

; Function Attrs: inlinehint nounwind sspstrong willreturn memory(read) uwtable
define internal i64 @RSTRING_LEN(i64 noundef %0) #5 {
  %2 = alloca i64, align 8
  store i64 %0, ptr %2, align 8, !tbaa !10
  %3 = load i64, ptr %2, align 8, !tbaa !10
  %4 = inttoptr i64 %3 to ptr
  %5 = getelementptr inbounds nuw %struct.RString, ptr %4, i32 0, i32 1
  %6 = load i64, ptr %5, align 8, !tbaa !67
  ret i64 %6
}

; Function Attrs: nounwind sspstrong uwtable
define internal i32 @inspect_ipv6_mreq(i32 noundef %0, i32 noundef %1, i64 noundef %2, i64 noundef %3) #0 {
  %5 = alloca i32, align 4
  %6 = alloca i32, align 4
  %7 = alloca i32, align 4
  %8 = alloca i64, align 8
  %9 = alloca i64, align 8
  %10 = alloca %struct.ipv6_mreq, align 4
  %11 = alloca [46 x i8], align 16
  %12 = alloca [48 x i8], align 16
  store i32 %0, ptr %6, align 4, !tbaa !6
  store i32 %1, ptr %7, align 4, !tbaa !6
  store i64 %2, ptr %8, align 8, !tbaa !10
  store i64 %3, ptr %9, align 8, !tbaa !10
  %13 = load i64, ptr %8, align 8, !tbaa !10
  %14 = call i64 @RSTRING_LEN(i64 noundef %13) #20
  %15 = icmp eq i64 %14, 20
  br i1 %15, label %16, label %39

16:                                               ; preds = %4
  call void @llvm.lifetime.start.p0(i64 20, ptr %10) #17
  call void @llvm.lifetime.start.p0(i64 46, ptr %11) #17
  call void @llvm.lifetime.start.p0(i64 48, ptr %12) #17
  %17 = load i64, ptr %8, align 8, !tbaa !10
  %18 = call ptr @RSTRING_PTR(i64 noundef %17)
  %19 = call nonnull ptr @ruby_nonempty_memcpy(ptr noundef %10, ptr noundef %18, i64 noundef 20) #18
  %20 = getelementptr inbounds nuw %struct.ipv6_mreq, ptr %10, i32 0, i32 0
  %21 = getelementptr inbounds [46 x i8], ptr %11, i64 0, i64 0
  %22 = call ptr @inet_ntop(i32 noundef 10, ptr noundef %20, ptr noundef %21, i32 noundef 46) #17
  %23 = icmp eq ptr %22, null
  br i1 %23, label %24, label %27

24:                                               ; preds = %16
  %25 = load i64, ptr %9, align 8, !tbaa !10
  %26 = call i64 @rbimpl_str_cat_cstr(i64 noundef %25, ptr noundef @.str.36)
  br label %31

27:                                               ; preds = %16
  %28 = load i64, ptr %9, align 8, !tbaa !10
  %29 = getelementptr inbounds [46 x i8], ptr %11, i64 0, i64 0
  %30 = call i64 (i64, ptr, ...) @rb_str_catf(i64 noundef %28, ptr noundef @.str.19, ptr noundef %29)
  br label %31

31:                                               ; preds = %27, %24
  %32 = getelementptr inbounds nuw %struct.ipv6_mreq, ptr %10, i32 0, i32 1
  %33 = load i32, ptr %32, align 4, !tbaa !30
  %34 = getelementptr inbounds [48 x i8], ptr %12, i64 0, i64 0
  %35 = call i32 @rb_if_indextoname(ptr noundef @.str.25, ptr noundef @.str.41, i32 noundef %33, ptr noundef %34, i64 noundef 48)
  %36 = load i64, ptr %9, align 8, !tbaa !10
  %37 = getelementptr inbounds [48 x i8], ptr %12, i64 0, i64 0
  %38 = call i64 @rb_str_cat_cstr(i64 noundef %36, ptr noundef %37)
  store i32 1, ptr %5, align 4
  call void @llvm.lifetime.end.p0(i64 48, ptr %12) #17
  call void @llvm.lifetime.end.p0(i64 46, ptr %11) #17
  call void @llvm.lifetime.end.p0(i64 20, ptr %10) #17
  br label %40

39:                                               ; preds = %4
  store i32 0, ptr %5, align 4
  br label %40

40:                                               ; preds = %39, %31
  %41 = load i32, ptr %5, align 4
  ret i32 %41
}