; Function Attrs: nounwind sspstrong uwtable
define internal fastcc range(i32 0, 2) i32 @inspect_ipv6_mreq(i64 noundef %0, i64 noundef %1) unnamed_addr #0 {
  %3 = alloca [16 x i8], align 16
  %4 = alloca %struct.ipv6_mreq, align 4
  %5 = alloca [46 x i8], align 16
  %6 = alloca [48 x i8], align 16
  %7 = inttoptr i64 %0 to ptr
  %8 = getelementptr inbounds nuw i8, ptr %7, i64 16
  %9 = load i64, ptr %8, align 8, !tbaa !15
  %10 = icmp eq i64 %9, 20
  br i1 %10, label %11, label %31

11:                                               ; preds = %2
  call void @llvm.lifetime.start.p0(i64 20, ptr nonnull %4) #6
  call void @llvm.lifetime.start.p0(i64 46, ptr nonnull %5) #6
  call void @llvm.lifetime.start.p0(i64 48, ptr nonnull %6) #6
  %12 = load i64, ptr %7, align 8, !tbaa !13, !noalias !119
  %13 = and i64 %12, 8192
  %.not.i.i = icmp eq i64 %13, 0
  %14 = getelementptr inbounds nuw i8, ptr %7, i64 24
  br i1 %.not.i.i, label %RSTRING_PTR.exit, label %15

15:                                               ; preds = %11
  %.sroa.2.0.copyload.i = load ptr, ptr %14, align 8
  br label %RSTRING_PTR.exit

RSTRING_PTR.exit:                                 ; preds = %11, %15
  %.sroa.2.0.i = phi ptr [ %.sroa.2.0.copyload.i, %15 ], [ %14, %11 ]
  call void @llvm.memcpy.p0.p0.i64(ptr noundef nonnull align 4 dereferenceable(20) %4, ptr noundef nonnull readonly align 1 dereferenceable(20) %.sroa.2.0.i, i64 noundef range(i64 4, 105) 20, i1 noundef false) #6
  %16 = call ptr @inet_ntop(i32 noundef 10, ptr noundef nonnull %4, ptr noundef nonnull %5, i32 noundef 46) #6
  %17 = icmp eq ptr %16, null
  br i1 %17, label %18, label %20

18:                                               ; preds = %RSTRING_PTR.exit
  %19 = call i64 @rb_str_cat(i64 noundef %1, ptr noundef nonnull @.str.36, i64 noundef 16) #6
  br label %22

20:                                               ; preds = %RSTRING_PTR.exit
  %21 = call i64 (i64, ptr, ...) @rb_str_catf(i64 noundef %1, ptr noundef nonnull @.str.19, ptr noundef nonnull %5) #6
  br label %22

22:                                               ; preds = %20, %18
  %23 = getelementptr inbounds nuw i8, ptr %4, i64 16
  %24 = load i32, ptr %23, align 4, !tbaa !122
  call void @llvm.lifetime.start.p0(i64 16, ptr nonnull %3) #6
  %25 = call ptr @if_indextoname(i32 noundef %24, ptr noundef nonnull %3) #6
  %.not.i = icmp eq ptr %25, null
  br i1 %.not.i, label %28, label %26

26:                                               ; preds = %22
  %27 = call i32 (ptr, i64, ptr, ...) @ruby_snprintf(ptr noundef nonnull %6, i64 noundef 48, ptr noundef nonnull @.str.38, ptr noundef nonnull @.str.25, ptr noundef nonnull %3) #6
  br label %rb_if_indextoname.exit

28:                                               ; preds = %22
  %29 = call i32 (ptr, i64, ptr, ...) @ruby_snprintf(ptr noundef nonnull %6, i64 noundef 48, ptr noundef nonnull @.str.39, ptr noundef nonnull @.str.41, i32 noundef %24) #6
  br label %rb_if_indextoname.exit

rb_if_indextoname.exit:                           ; preds = %26, %28
  call void @llvm.lifetime.end.p0(i64 16, ptr nonnull %3) #6
  %30 = call i64 @rb_str_cat_cstr(i64 noundef %1, ptr noundef nonnull %6) #6
  call void @llvm.lifetime.end.p0(i64 48, ptr nonnull %6) #6
  call void @llvm.lifetime.end.p0(i64 46, ptr nonnull %5) #6
  call void @llvm.lifetime.end.p0(i64 20, ptr nonnull %4) #6
  br label %31

31:                                               ; preds = %2, %rb_if_indextoname.exit
  %.0 = phi i32 [ 1, %rb_if_indextoname.exit ], [ 0, %2 ]
  ret i32 %.0
}